target datalayout = "e-m:e-p270:32:32-p271:32:32-p272:64:64-i64:64-i128:128-f80:128-n8:16:32:64-S128"
target triple = "x86_64-unknown-linux-gnu"

%"class.sat::literal" = type { i32 }
%"class.sat::clause" = type { i32, i32, i32, %class.approx_set_tpl, i32, [0 x %"class.sat::literal"] }
%class.approx_set_tpl = type { i32 }
%"class.sat::clause_wrapper" = type <{ %union.anon, i32, [4 x i8] }>
%union.anon = type { ptr }

@_ZN3satL12null_literalE = internal global %"class.sat::literal" zeroinitializer, align 4

; Function Attrs: mustprogress nounwind uwtable
define linkonce_odr hidden void @_ZN3sat7literalC2Ev(ptr noundef nonnull align 4 dereferenceable(4) %this) unnamed_addr #4 comdat align 2 {
entry:
  %this.addr = alloca ptr, align 8
  store ptr %this, ptr %this.addr, align 8
  %this1 = load ptr, ptr %this.addr, align 8
  %m_val = getelementptr inbounds %"class.sat::literal", ptr %this1, i32 0, i32 0
  store i32 -2, ptr %m_val, align 4
  ret void
}

; Function Attrs: mustprogress nounwind uwtable
define linkonce_odr hidden noundef i32 @_ZNK3sat7literal7to_uintEv(ptr noundef nonnull align 4 dereferenceable(4) %this) #4 comdat align 2 {
entry:
  %this.addr = alloca ptr, align 8
  store ptr %this, ptr %this.addr, align 8
  %this1 = load ptr, ptr %this.addr, align 8
  %m_val = getelementptr inbounds %"class.sat::literal", ptr %this1, i32 0, i32 0
  %0 = load i32, ptr %m_val, align 4
  ret i32 %0
}

; Function Attrs: mustprogress nounwind uwtable
define linkonce_odr hidden noundef nonnull align 4 dereferenceable(4) ptr @_ZN3sat6clauseixEj(ptr noundef nonnull align 4 dereferenceable(20) %this, i32 noundef %idx) #4 comdat align 2 {
entry:
  %this.addr = alloca ptr, align 8
  %idx.addr = alloca i32, align 4
  store ptr %this, ptr %this.addr, align 8
  store i32 %idx, ptr %idx.addr, align 4
  %this1 = load ptr, ptr %this.addr, align 8
  %m_lits = getelementptr inbounds %"class.sat::clause", ptr %this1, i32 0, i32 5
  %0 = load i32, ptr %idx.addr, align 4
  %idxprom = zext i32 %0 to i64
  %arrayidx = getelementptr inbounds [0 x %"class.sat::literal"], ptr %m_lits, i64 0, i64 %idxprom
  ret ptr %arrayidx
}

; Function Attrs: mustprogress uwtable
define linkonce_odr hidden i32 @_ZN3sat10to_literalEj(i32 noundef %x) #5 comdat {
entry:
  %retval = alloca %"class.sat::literal", align 4
  %x.addr = alloca i32, align 4
  store i32 %x, ptr %x.addr, align 4
  call void @_ZN3sat7literalC2Ev(ptr noundef nonnull align 4 dereferenceable(4) %retval)
  %0 = load i32, ptr %x.addr, align 4
  %m_val = getelementptr inbounds %"class.sat::literal", ptr %retval, i32 0, i32 0
  store i32 %0, ptr %m_val, align 4
  %coerce.dive = getelementptr inbounds %"class.sat::literal", ptr %retval, i32 0, i32 0
  %1 = load i32, ptr %coerce.dive, align 4
  ret i32 %1
}

; Function Attrs: mustprogress nounwind uwtable
define linkonce_odr hidden noundef i32 @_ZNK3sat6clause4sizeEv(ptr noundef nonnull align 4 dereferenceable(20) %this) #4 comdat align 2 {
entry:
  %this.addr = alloca ptr, align 8
  store ptr %this, ptr %this.addr, align 8
  %this1 = load ptr, ptr %this.addr, align 8
  %m_size = getelementptr inbounds %"class.sat::clause", ptr %this1, i32 0, i32 1
  %0 = load i32, ptr %m_size, align 4
  ret i32 %0
}

; Function Attrs: mustprogress uwtable
define linkonce_odr hidden noundef zeroext i1 @_ZNK3sat14clause_wrapper9is_binaryEv(ptr noundef nonnull align 8 dereferenceable(12) %this) #5 comdat align 2 {
entry:
  %this.addr = alloca ptr, align 8
  store ptr %this, ptr %this.addr, align 8
  %this1 = load ptr, ptr %this.addr, align 8
  %m_l2_idx = getelementptr inbounds %"class.sat::clause_wrapper", ptr %this1, i32 0, i32 1
  %0 = load i32, ptr %m_l2_idx, align 8
  %call = call noundef i32 @_ZNK3sat7literal7to_uintEv(ptr noundef nonnull align 4 dereferenceable(4) @_ZN3satL12null_literalE)
  %cmp = icmp ne i32 %0, %call
  ret i1 %cmp
}

; Function Attrs: mustprogress nounwind uwtable
define linkonce_odr hidden noundef i32 @_ZNK3sat7literal3varEv(ptr noundef nonnull align 4 dereferenceable(4) %this) #4 comdat align 2 {
entry:
  %this.addr = alloca ptr, align 8
  store ptr %this, ptr %this.addr, align 8
  %this1 = load ptr, ptr %this.addr, align 8
  %m_val = getelementptr inbounds %"class.sat::literal", ptr %this1, i32 0, i32 0
  %0 = load i32, ptr %m_val, align 4
  %shr = lshr i32 %0, 1
  ret i32 %shr
}

; Function Attrs: mustprogress uwtable
define linkonce_odr hidden i32 @_ZNK3sat14clause_wrapperixEj(ptr noundef nonnull align 8 dereferenceable(12) %this, i32 noundef %idx) #5 comdat align 2 {
entry:
  %retval = alloca %"class.sat::literal", align 4
  %this.addr = alloca ptr, align 8
  %idx.addr = alloca i32, align 4
  store ptr %this, ptr %this.addr, align 8
  store i32 %idx, ptr %idx.addr, align 4
  %this1 = load ptr, ptr %this.addr, align 8
  %call = call noundef zeroext i1 @_ZNK3sat14clause_wrapper9is_binaryEv(ptr noundef nonnull align 8 dereferenceable(12) %this1)
  br i1 %call, label %if.then, label %if.else

if.then:                                          ; preds = %entry
  %0 = load i32, ptr %idx.addr, align 4
  %cmp = icmp eq i32 %0, 0
  br i1 %cmp, label %cond.true, label %cond.false

cond.true:                                        ; preds = %if.then
  %1 = getelementptr inbounds %"class.sat::clause_wrapper", ptr %this1, i32 0, i32 0
  %2 = load i32, ptr %1, align 8
  %call2 = call i32 @_ZN3sat10to_literalEj(i32 noundef %2)
  %coerce.dive = getelementptr inbounds %"class.sat::literal", ptr %retval, i32 0, i32 0
  store i32 %call2, ptr %coerce.dive, align 4
  br label %cond.end

cond.false:                                       ; preds = %if.then
  %m_l2_idx = getelementptr inbounds %"class.sat::clause_wrapper", ptr %this1, i32 0, i32 1
  %3 = load i32, ptr %m_l2_idx, align 8
  %call3 = call i32 @_ZN3sat10to_literalEj(i32 noundef %3)
  %coerce.dive4 = getelementptr inbounds %"class.sat::literal", ptr %retval, i32 0, i32 0
  store i32 %call3, ptr %coerce.dive4, align 4
  br label %cond.end

cond.end:                                         ; preds = %cond.false, %cond.true
  br label %return

if.else:                                          ; preds = %entry
  %4 = getelementptr inbounds %"class.sat::clause_wrapper", ptr %this1, i32 0, i32 0
  %5 = load ptr, ptr %4, align 8
  %6 = load i32, ptr %idx.addr, align 4
  %call5 = call noundef nonnull align 4 dereferenceable(4) ptr @_ZN3sat6clauseixEj(ptr noundef nonnull align 4 dereferenceable(20) %5, i32 noundef %6)
  call void @llvm.memcpy.p0.p0.i64(ptr align 4 %retval, ptr align 4 %call5, i64 4, i1 false)
  br label %return

return:                                           ; preds = %if.else, %cond.end
  %coerce.dive6 = getelementptr inbounds %"class.sat::literal", ptr %retval, i32 0, i32 0
  %7 = load i32, ptr %coerce.dive6, align 4
  ret i32 %7
}

; Function Attrs: mustprogress uwtable
define linkonce_odr hidden noundef i32 @_ZNK3sat14clause_wrapper4sizeEv(ptr noundef nonnull align 8 dereferenceable(12) %this) #5 comdat align 2 {
entry:
  %this.addr = alloca ptr, align 8
  store ptr %this, ptr %this.addr, align 8
  %this1 = load ptr, ptr %this.addr, align 8
  %call = call noundef zeroext i1 @_ZNK3sat14clause_wrapper9is_binaryEv(ptr noundef nonnull align 8 dereferenceable(12) %this1)
  br i1 %call, label %cond.true, label %cond.false

cond.true:                                        ; preds = %entry
  br label %cond.end

cond.false:                                       ; preds = %entry
  %0 = getelementptr inbounds %"class.sat::clause_wrapper", ptr %this1, i32 0, i32 0
  %1 = load ptr, ptr %0, align 8
  %call2 = call noundef i32 @_ZNK3sat6clause4sizeEv(ptr noundef nonnull align 4 dereferenceable(20) %1)
  br label %cond.end

cond.end:                                         ; preds = %cond.false, %cond.true
  %cond = phi i32 [ 2, %cond.true ], [ %call2, %cond.false ]
  ret i32 %cond
}

; Function Attrs: mustprogress uwtable
define hidden noundef zeroext i1 @_ZNK3sat14clause_wrapper8containsEj(ptr noundef nonnull align 8 dereferenceable(12) %this, i32 noundef %v) #5 align 2 {
entry:
  %retval = alloca i1, align 1
  %this.addr = alloca ptr, align 8
  %v.addr = alloca i32, align 4
  %sz = alloca i32, align 4
  %i = alloca i32, align 4
  %ref.tmp = alloca %"class.sat::literal", align 4
  store ptr %this, ptr %this.addr, align 8
  store i32 %v, ptr %v.addr, align 4
  %this1 = load ptr, ptr %this.addr, align 8
  %call = call noundef i32 @_ZNK3sat14clause_wrapper4sizeEv(ptr noundef nonnull align 8 dereferenceable(12) %this1)
  store i32 %call, ptr %sz, align 4
  store i32 0, ptr %i, align 4
  br label %for.cond

for.cond:                                         ; preds = %for.inc, %entry
  %0 = load i32, ptr %i, align 4
  %1 = load i32, ptr %sz, align 4
  %cmp = icmp ult i32 %0, %1
  br i1 %cmp, label %for.body, label %for.end

for.body:                                         ; preds = %for.cond
  %2 = load i32, ptr %i, align 4
  %call2 = call i32 @_ZNK3sat14clause_wrapperixEj(ptr noundef nonnull align 8 dereferenceable(12) %this1, i32 noundef %2)
  %coerce.dive = getelementptr inbounds %"class.sat::literal", ptr %ref.tmp, i32 0, i32 0
  store i32 %call2, ptr %coerce.dive, align 4
  %call3 = call noundef i32 @_ZNK3sat7literal3varEv(ptr noundef nonnull align 4 dereferenceable(4) %ref.tmp)
  %3 = load i32, ptr %v.addr, align 4
  %cmp4 = icmp eq i32 %call3, %3
  br i1 %cmp4, label %if.then, label %if.end

if.then:                                          ; preds = %for.body
  store i1 true, ptr %retval, align 1
  br label %return

if.end:                                           ; preds = %for.body
  br label %for.inc

for.inc:                                          ; preds = %if.end
  %4 = load i32, ptr %i, align 4
  %inc = add i32 %4, 1
  store i32 %inc, ptr %i, align 4
  br label %for.cond, !llvm.loop !12

for.end:                                          ; preds = %for.cond
  store i1 false, ptr %retval, align 1
  br label %return

return:                                           ; preds = %for.end, %if.then
  %5 = load i1, ptr %retval, align 1
  ret i1 %5
}