; Function Attrs: mustprogress nofree norecurse nosync nounwind willreturn memory(read, inaccessiblemem: none) uwtable
define hidden noundef zeroext i1 @_ZNK3sat14clause_wrapper8containsEj(ptr nocapture noundef nonnull readonly align 8 dereferenceable(12) %this, i32 noundef %v) local_unnamed_addr #6 align 2 {
entry:
  %m_l2_idx.i.i = getelementptr inbounds i8, ptr %this, i64 8
  %0 = load i32, ptr %m_l2_idx.i.i, align 8
  %.b = load i1, ptr @_ZN3satL12null_literalE.0, align 4
  %1 = select i1 %.b, i32 -2, i32 0
  %cmp.i.not.i = icmp eq i32 %0, %1
  %2 = load ptr, ptr %this, align 8
  br i1 %cmp.i.not.i, label %_ZNK3sat14clause_wrapper4sizeEv.exit, label %for.body.lr.ph.split

_ZNK3sat14clause_wrapper4sizeEv.exit:             ; preds = %entry
  %m_size.i.i = getelementptr inbounds i8, ptr %2, i64 4
  %3 = load i32, ptr %m_size.i.i, align 4
  %cmp5.not = icmp eq i32 %3, 0
  br i1 %cmp5.not, label %return, label %for.body.lr.ph.split.us

for.body.lr.ph.split.us:                          ; preds = %_ZNK3sat14clause_wrapper4sizeEv.exit
  %4 = load ptr, ptr %this, align 8
  %m_lits.i.i27 = getelementptr inbounds i8, ptr %4, i64 20
  %retval.sroa.0.0.copyload.i.us14 = load i32, ptr %m_lits.i.i27, align 4
  %shr.i.us15 = lshr i32 %retval.sroa.0.0.copyload.i.us14, 1
  %cmp4.us16 = icmp eq i32 %shr.i.us15, %v
  br i1 %cmp4.us16, label %return, label %for.cond.us.preheader

for.cond.us.preheader:                            ; preds = %for.body.lr.ph.split.us
  %5 = zext i32 %3 to i64
  br label %for.cond.us

for.body.us:                                      ; preds = %for.cond.us
  %arrayidx.i.i.us = getelementptr inbounds [0 x %"class.sat::literal"], ptr %m_lits.i.i27, i64 0, i64 %indvars.iv
  %retval.sroa.0.0.copyload.i.us = load i32, ptr %arrayidx.i.i.us, align 4
  %shr.i.us = lshr i32 %retval.sroa.0.0.copyload.i.us, 1
  %cmp4.us = icmp eq i32 %shr.i.us, %v
  %indvars.iv.next = add nuw nsw i64 %indvars.iv, 1
  br i1 %cmp4.us, label %return.loopexit, label %for.cond.us, !llvm.loop !11

for.cond.us:                                      ; preds = %for.cond.us.preheader, %for.body.us
  %indvars.iv = phi i64 [ 1, %for.cond.us.preheader ], [ %indvars.iv.next, %for.body.us ]
  %exitcond22.not = icmp eq i64 %indvars.iv, %5
  br i1 %exitcond22.not, label %return.loopexit, label %for.body.us, !llvm.loop !11

for.body.lr.ph.split:                             ; preds = %entry
  %6 = ptrtoint ptr %2 to i64
  %7 = trunc i64 %6 to i32
  %shr.i10 = lshr i32 %7, 1
  %cmp411 = icmp eq i32 %shr.i10, %v
  br i1 %cmp411, label %return, label %for.cond.preheader

for.cond.preheader:                               ; preds = %for.body.lr.ph.split
  %shr.i = lshr i32 %0, 1
  %cmp4 = icmp eq i32 %shr.i, %v
  br label %for.cond

for.cond:                                         ; preds = %for.cond.preheader, %for.body
  %inc12 = phi i32 [ %inc, %for.body ], [ 1, %for.cond.preheader ]
  %exitcond.not = icmp eq i32 %inc12, 2
  br i1 %exitcond.not, label %return.loopexit30, label %for.body, !llvm.loop !11

for.body:                                         ; preds = %for.cond
  %inc = add i32 %inc12, 1
  br i1 %cmp4, label %return.loopexit30, label %for.cond, !llvm.loop !11

return.loopexit:                                  ; preds = %for.cond.us, %for.body.us
  %cmp.us.le = icmp ult i64 %indvars.iv, %5
  br label %return

return.loopexit30:                                ; preds = %for.cond, %for.body
  %cmp.le = icmp ult i32 %inc12, 2
  br label %return

return:                                           ; preds = %return.loopexit30, %return.loopexit, %for.body.lr.ph.split.us, %for.body.lr.ph.split, %_ZNK3sat14clause_wrapper4sizeEv.exit
  %cmp.lcssa = phi i1 [ false, %_ZNK3sat14clause_wrapper4sizeEv.exit ], [ true, %for.body.lr.ph.split.us ], [ true, %for.body.lr.ph.split ], [ %cmp.us.le, %return.loopexit ], [ %cmp.le, %return.loopexit30 ]
  ret i1 %cmp.lcssa
}